target datalayout = "e-m:e-p270:32:32-p271:32:32-p272:64:64-i64:64-i128:128-f80:128-n8:16:32:64-S128"
target triple = "x86_64-pc-linux-gnu"

%struct.ec_key_st = type { ptr, ptr, ptr, i32, i32, i32, ptr, %struct.crypto_ex_data_st }
%struct.crypto_ex_data_st = type { ptr }
%struct.ecdsa_method_st = type { %struct.openssl_method_common_st, ptr, ptr, ptr, ptr, ptr, ptr, i32 }
%struct.openssl_method_common_st = type { i32, i8 }
%struct.cbb_st = type { ptr, ptr, i64, i8, i8, i8 }

@.str = private unnamed_addr constant [124 x i8] c"generated/home/dtcxzyw/WorkSpace/Projects/compilers/llvm-opt-benchmark/bench/libquic/libquic/boringssl/crypto/ecdsa/ecdsa.c\00", align 1

; Function Attrs: nounwind uwtable
define hidden i32 @ECDSA_sign_ex(i32 noundef %0, ptr noundef %1, i64 noundef %2, ptr noundef %3, ptr noundef %4, ptr noundef %5, ptr noundef %6, ptr noundef %7) #0 {
  %9 = alloca i32, align 4
  %10 = alloca ptr, align 8
  %11 = alloca i64, align 8
  %12 = alloca ptr, align 8
  %13 = alloca ptr, align 8
  %14 = alloca ptr, align 8
  %15 = alloca ptr, align 8
  %16 = alloca ptr, align 8
  %17 = alloca i32, align 4
  %18 = alloca ptr, align 8
  %19 = alloca %struct.cbb_st, align 8
  %20 = alloca i64, align 8
  store i32 %0, ptr %9, align 4, !tbaa !6
  store ptr %1, ptr %10, align 8, !tbaa !10
  store i64 %2, ptr %11, align 8, !tbaa !13
  store ptr %3, ptr %12, align 8, !tbaa !10
  store ptr %4, ptr %13, align 8, !tbaa !15
  store ptr %5, ptr %14, align 8, !tbaa !30
  store ptr %6, ptr %15, align 8, !tbaa !30
  store ptr %7, ptr %16, align 8, !tbaa !17
  call void @llvm.lifetime.start.p0(i64 4, ptr %17) #5
  store i32 0, ptr %17, align 4, !tbaa !6
  call void @llvm.lifetime.start.p0(i64 8, ptr %18) #5
  store ptr null, ptr %18, align 8, !tbaa !31
  %21 = load ptr, ptr %16, align 8, !tbaa !17
  %22 = getelementptr inbounds nuw %struct.ec_key_st, ptr %21, i32 0, i32 6
  %23 = load ptr, ptr %22, align 8, !tbaa !19
  %24 = icmp ne ptr %23, null
  br i1 %24, label %25, label %34

25:                                               ; preds = %8
  %26 = load ptr, ptr %16, align 8, !tbaa !17
  %27 = getelementptr inbounds nuw %struct.ec_key_st, ptr %26, i32 0, i32 6
  %28 = load ptr, ptr %27, align 8, !tbaa !19
  %29 = getelementptr inbounds nuw %struct.ecdsa_method_st, ptr %28, i32 0, i32 5
  %30 = load ptr, ptr %29, align 8, !tbaa !27
  %31 = icmp ne ptr %30, null
  br i1 %31, label %32, label %34

32:                                               ; preds = %25
  call void @ERR_put_error(i32 noundef 26, i32 noundef 0, i32 noundef 103, ptr noundef @.str, i32 noundef 459)
  %33 = load ptr, ptr %13, align 8, !tbaa !15
  store i32 0, ptr %33, align 4, !tbaa !6
  br label %64

34:                                               ; preds = %25, %8
  %35 = load ptr, ptr %10, align 8, !tbaa !10
  %36 = load i64, ptr %11, align 8, !tbaa !13
  %37 = load ptr, ptr %14, align 8, !tbaa !30
  %38 = load ptr, ptr %15, align 8, !tbaa !30
  %39 = load ptr, ptr %16, align 8, !tbaa !17
  %40 = call ptr @ECDSA_do_sign_ex(ptr noundef %35, i64 noundef %36, ptr noundef %37, ptr noundef %38, ptr noundef %39)
  store ptr %40, ptr %18, align 8, !tbaa !31
  %41 = load ptr, ptr %18, align 8, !tbaa !31
  %42 = icmp eq ptr %41, null
  br i1 %42, label %43, label %45

43:                                               ; preds = %34
  %44 = load ptr, ptr %13, align 8, !tbaa !15
  store i32 0, ptr %44, align 4, !tbaa !6
  br label %64

45:                                               ; preds = %34
  call void @CBB_zero(ptr noundef %19)
  %46 = load ptr, ptr %12, align 8, !tbaa !10
  %47 = load ptr, ptr %16, align 8, !tbaa !17
  %48 = call i64 @ECDSA_size(ptr noundef %47)
  %49 = call i32 @CBB_init_fixed(ptr noundef %19, ptr noundef %46, i64 noundef %48)
  %50 = icmp ne i32 %49, 0
  br i1 %50, label %51, label %58

51:                                               ; preds = %45
  %52 = load ptr, ptr %18, align 8, !tbaa !31
  %53 = call i32 @ECDSA_SIG_marshal(ptr noundef %19, ptr noundef %52)
  %54 = icmp ne i32 %53, 0
  br i1 %54, label %55, label %58

55:                                               ; preds = %51
  %56 = call i32 @CBB_finish(ptr noundef %19, ptr noundef null, ptr noundef %20)
  %57 = icmp ne i32 %56, 0
  br i1 %57, label %60, label %58

58:                                               ; preds = %55, %51, %45
  call void @ERR_put_error(i32 noundef 26, i32 noundef 0, i32 noundef 105, ptr noundef @.str, i32 noundef 476)
  call void @CBB_cleanup(ptr noundef %19)
  %59 = load ptr, ptr %13, align 8, !tbaa !15
  store i32 0, ptr %59, align 4, !tbaa !6
  br label %64

60:                                               ; preds = %55
  %61 = load i64, ptr %20, align 8, !tbaa !13
  %62 = trunc i64 %61 to i32
  %63 = load ptr, ptr %13, align 8, !tbaa !15
  store i32 %62, ptr %63, align 4, !tbaa !6
  store i32 1, ptr %17, align 4, !tbaa !6
  br label %64

64:                                               ; preds = %60, %58, %43, %32
  %65 = load ptr, ptr %18, align 8, !tbaa !31
  call void @ECDSA_SIG_free(ptr noundef %65)
  %66 = load i32, ptr %17, align 4, !tbaa !6
  call void @llvm.lifetime.end.p0(i64 8, ptr %18) #5
  call void @llvm.lifetime.end.p0(i64 4, ptr %17) #5
  ret i32 %66
}