; Function Attrs: nounwind uwtable
define hidden range(i32 0, 2) i32 @ECDSA_sign_ex(i32 %0, ptr noundef %1, i64 noundef %2, ptr noundef %3, ptr noundef writeonly captures(none) initializes((0, 4)) %4, ptr noundef %5, ptr noundef %6, ptr noundef %7) local_unnamed_addr #0 {
  %9 = alloca %struct.cbb_st, align 8
  %10 = alloca i64, align 8
  %11 = getelementptr inbounds nuw i8, ptr %7, i64 40
  %12 = load ptr, ptr %11, align 8, !tbaa !6
  %.not = icmp eq ptr %12, null
  br i1 %.not, label %17, label %13

13:                                               ; preds = %8
  %14 = getelementptr inbounds nuw i8, ptr %12, i64 40
  %15 = load ptr, ptr %14, align 8, !tbaa !18
  %.not19 = icmp eq ptr %15, null
  br i1 %.not19, label %17, label %16

16:                                               ; preds = %13
  tail call void @ERR_put_error(i32 noundef 26, i32 noundef 0, i32 noundef 103, ptr noundef nonnull @.str, i32 noundef 459) #5
  br label %31

17:                                               ; preds = %13, %8
  %18 = tail call ptr @ECDSA_do_sign_ex(ptr noundef %1, i64 noundef %2, ptr noundef %5, ptr noundef %6, ptr noundef nonnull %7)
  %19 = icmp eq ptr %18, null
  br i1 %19, label %31, label %20

20:                                               ; preds = %17
  call void @CBB_zero(ptr noundef nonnull %9) #5
  %21 = call i64 @ECDSA_size(ptr noundef nonnull %7) #5
  %22 = call i32 @CBB_init_fixed(ptr noundef nonnull %9, ptr noundef %3, i64 noundef %21) #5
  %.not20 = icmp eq i32 %22, 0
  br i1 %.not20, label %27, label %23

23:                                               ; preds = %20
  %24 = call i32 @ECDSA_SIG_marshal(ptr noundef nonnull %9, ptr noundef nonnull %18) #5
  %.not21 = icmp eq i32 %24, 0
  br i1 %.not21, label %27, label %25

25:                                               ; preds = %23
  %26 = call i32 @CBB_finish(ptr noundef nonnull %9, ptr noundef null, ptr noundef nonnull %10) #5
  %.not22 = icmp eq i32 %26, 0
  br i1 %.not22, label %27, label %28

27:                                               ; preds = %25, %23, %20
  call void @ERR_put_error(i32 noundef 26, i32 noundef 0, i32 noundef 105, ptr noundef nonnull @.str, i32 noundef 476) #5
  call void @CBB_cleanup(ptr noundef nonnull %9) #5
  br label %31

28:                                               ; preds = %25
  %29 = load i64, ptr %10, align 8, !tbaa !21
  %30 = trunc i64 %29 to i32
  br label %31

31:                                               ; preds = %17, %28, %27, %16
  %.sink = phi i32 [ %30, %28 ], [ 0, %27 ], [ 0, %16 ], [ 0, %17 ]
  %.016 = phi i32 [ 1, %28 ], [ 0, %27 ], [ 0, %16 ], [ 0, %17 ]
  %.0 = phi ptr [ %18, %28 ], [ %18, %27 ], [ null, %16 ], [ null, %17 ]
  store i32 %.sink, ptr %4, align 4, !tbaa !23
  call void @ECDSA_SIG_free(ptr noundef %.0) #5
  ret i32 %.016
}